target datalayout = "e-m:e-p270:32:32-p271:32:32-p272:64:64-i64:64-i128:128-f80:128-n8:16:32:64-S128"
target triple = "x86_64-pc-linux-gnu"

; Function Attrs: mustprogress uwtable
define internal void @"_ZNSt14_Function_base13_Base_managerIZN2cv3mcc20CCheckerDetectorImpl15_no_net_processERKNS1_11_InputArrayENS2_9TYPECHARTEiRKNS1_3PtrINS2_18DetectorParametersEEESt6vectorINS1_5Rect_IiEESaISF_EEE3$_0E9_M_createIRKSI_EEvRSt9_Any_dataOT_St17integral_constantIbLb0EE"(ptr noundef nonnull align 8 dereferenceable(16) %0, ptr noundef nonnull align 8 dereferenceable(112) %1) #4 align 2 {
  %3 = alloca ptr, align 8
  %4 = alloca ptr, align 8
  store ptr %0, ptr %3, align 8, !tbaa !648
  store ptr %1, ptr %4, align 8, !tbaa !63
  %5 = call noalias noundef nonnull ptr @_Znwm(i64 noundef 112) #28
  %6 = load ptr, ptr %4, align 8, !tbaa !63
  call void @llvm.memcpy.p0.p0.i64(ptr align 16 %5, ptr align 8 %6, i64 112, i1 false), !tbaa.struct !652
  %7 = load ptr, ptr %3, align 8, !tbaa !648
  %8 = call noundef nonnull align 8 dereferenceable(8) ptr @"_ZNSt9_Any_data9_M_accessIPZN2cv3mcc20CCheckerDetectorImpl15_no_net_processERKNS1_11_InputArrayENS2_9TYPECHARTEiRKNS1_3PtrINS2_18DetectorParametersEEESt6vectorINS1_5Rect_IiEESaISF_EEE3$_0EERT_v"(ptr noundef nonnull align 8 dereferenceable(16) %7) #3
  store ptr %5, ptr %8, align 8, !tbaa !63
  ret void
}

; Function Attrs: mustprogress nounwind uwtable
define linkonce_odr hidden noundef ptr @_ZNKSt9_Any_data9_M_accessEv(ptr noundef nonnull align 8 dereferenceable(16) %0) #8 comdat align 2 {
  %2 = alloca ptr, align 8
  store ptr %0, ptr %2, align 8, !tbaa !648
  %3 = load ptr, ptr %2, align 8
  %4 = getelementptr inbounds [16 x i8], ptr %3, i64 0, i64 0
  ret ptr %4
}

; Function Attrs: mustprogress nounwind uwtable
define internal void @"_ZNSt14_Function_base13_Base_managerIZN2cv3mcc20CCheckerDetectorImpl15_no_net_processERKNS1_11_InputArrayENS2_9TYPECHARTEiRKNS1_3PtrINS2_18DetectorParametersEEESt6vectorINS1_5Rect_IiEESaISF_EEE3$_0E10_M_destroyERSt9_Any_dataSt17integral_constantIbLb0EE"(ptr noundef nonnull align 8 dereferenceable(16) %0) #8 align 2 {
  %2 = alloca ptr, align 8
  store ptr %0, ptr %2, align 8, !tbaa !648
  %3 = load ptr, ptr %2, align 8, !tbaa !648
  %4 = call noundef nonnull align 8 dereferenceable(8) ptr @"_ZNSt9_Any_data9_M_accessIPZN2cv3mcc20CCheckerDetectorImpl15_no_net_processERKNS1_11_InputArrayENS2_9TYPECHARTEiRKNS1_3PtrINS2_18DetectorParametersEEESt6vectorINS1_5Rect_IiEESaISF_EEE3$_0EERT_v"(ptr noundef nonnull align 8 dereferenceable(16) %3) #3
  %5 = load ptr, ptr %4, align 8, !tbaa !63
  %6 = icmp eq ptr %5, null
  br i1 %6, label %8, label %7

7:                                                ; preds = %1
  call void @_ZdlPv(ptr noundef %5) #26
  br label %8

8:                                                ; preds = %7, %1
  ret void
}

; Function Attrs: mustprogress uwtable
define internal void @"_ZNSt14_Function_base13_Base_managerIZN2cv3mcc20CCheckerDetectorImpl15_no_net_processERKNS1_11_InputArrayENS2_9TYPECHARTEiRKNS1_3PtrINS2_18DetectorParametersEEESt6vectorINS1_5Rect_IiEESaISF_EEE3$_0E15_M_init_functorIRKSI_EEvRSt9_Any_dataOT_"(ptr noundef nonnull align 8 dereferenceable(16) %0, ptr noundef nonnull align 8 dereferenceable(112) %1) #4 align 2 {
  %3 = alloca ptr, align 8
  %4 = alloca ptr, align 8
  store ptr %0, ptr %3, align 8, !tbaa !648
  store ptr %1, ptr %4, align 8, !tbaa !63
  %5 = load ptr, ptr %3, align 8, !tbaa !648
  %6 = load ptr, ptr %4, align 8, !tbaa !63
  call void @"_ZNSt14_Function_base13_Base_managerIZN2cv3mcc20CCheckerDetectorImpl15_no_net_processERKNS1_11_InputArrayENS2_9TYPECHARTEiRKNS1_3PtrINS2_18DetectorParametersEEESt6vectorINS1_5Rect_IiEESaISF_EEE3$_0E9_M_createIRKSI_EEvRSt9_Any_dataOT_St17integral_constantIbLb0EE"(ptr noundef nonnull align 8 dereferenceable(16) %5, ptr noundef nonnull align 8 dereferenceable(112) %6)
  ret void
}

; Function Attrs: mustprogress nounwind uwtable
define internal noundef nonnull align 8 dereferenceable(8) ptr @"_ZNKSt9_Any_data9_M_accessIPZN2cv3mcc20CCheckerDetectorImpl15_no_net_processERKNS1_11_InputArrayENS2_9TYPECHARTEiRKNS1_3PtrINS2_18DetectorParametersEEESt6vectorINS1_5Rect_IiEESaISF_EEE3$_0EERKT_v"(ptr noundef nonnull align 8 dereferenceable(16) %0) #8 align 2 {
  %2 = alloca ptr, align 8
  store ptr %0, ptr %2, align 8, !tbaa !648
  %3 = load ptr, ptr %2, align 8
  %4 = call noundef ptr @_ZNKSt9_Any_data9_M_accessEv(ptr noundef nonnull align 8 dereferenceable(16) %3) #3
  ret ptr %4
}

; Function Attrs: mustprogress nounwind uwtable
define linkonce_odr hidden noundef ptr @_ZNSt9_Any_data9_M_accessEv(ptr noundef nonnull align 8 dereferenceable(16) %0) #8 comdat align 2 {
  %2 = alloca ptr, align 8
  store ptr %0, ptr %2, align 8, !tbaa !648
  %3 = load ptr, ptr %2, align 8
  %4 = getelementptr inbounds [16 x i8], ptr %3, i64 0, i64 0
  ret ptr %4
}

; Function Attrs: mustprogress uwtable
define internal noundef zeroext i1 @"_ZNSt14_Function_base13_Base_managerIZN2cv3mcc20CCheckerDetectorImpl15_no_net_processERKNS1_11_InputArrayENS2_9TYPECHARTEiRKNS1_3PtrINS2_18DetectorParametersEEESt6vectorINS1_5Rect_IiEESaISF_EEE3$_0E10_M_managerERSt9_Any_dataRKSK_St18_Manager_operation"(ptr noundef nonnull align 8 dereferenceable(16) %0, ptr noundef nonnull align 8 dereferenceable(16) %1, i32 noundef %2) #4 align 2 {
  %4 = alloca ptr, align 8
  %5 = alloca ptr, align 8
  %6 = alloca i32, align 4
  store ptr %0, ptr %4, align 8, !tbaa !648
  store ptr %1, ptr %5, align 8, !tbaa !648
  store i32 %2, ptr %6, align 4, !tbaa !650
  %7 = load i32, ptr %6, align 4, !tbaa !650
  switch i32 %7, label %22 [
    i32 0, label %8
    i32 1, label %11
    i32 2, label %16
    i32 3, label %20
  ]

8:                                                ; preds = %3
  %9 = load ptr, ptr %4, align 8, !tbaa !648
  %10 = call noundef nonnull align 8 dereferenceable(8) ptr @_ZNSt9_Any_data9_M_accessIPKSt9type_infoEERT_v(ptr noundef nonnull align 8 dereferenceable(16) %9) #3
  store ptr @"_ZTIZN2cv3mcc20CCheckerDetectorImpl15_no_net_processERKNS_11_InputArrayENS0_9TYPECHARTEiRKNS_3PtrINS0_18DetectorParametersEEESt6vectorINS_5Rect_IiEESaISD_EEE3$_0", ptr %10, align 8, !tbaa !622
  br label %22

11:                                               ; preds = %3
  %12 = load ptr, ptr %5, align 8, !tbaa !648
  %13 = call noundef ptr @"_ZNSt14_Function_base13_Base_managerIZN2cv3mcc20CCheckerDetectorImpl15_no_net_processERKNS1_11_InputArrayENS2_9TYPECHARTEiRKNS1_3PtrINS2_18DetectorParametersEEESt6vectorINS1_5Rect_IiEESaISF_EEE3$_0E14_M_get_pointerERKSt9_Any_data"(ptr noundef nonnull align 8 dereferenceable(16) %12) #3
  %14 = load ptr, ptr %4, align 8, !tbaa !648
  %15 = call noundef nonnull align 8 dereferenceable(8) ptr @"_ZNSt9_Any_data9_M_accessIPZN2cv3mcc20CCheckerDetectorImpl15_no_net_processERKNS1_11_InputArrayENS2_9TYPECHARTEiRKNS1_3PtrINS2_18DetectorParametersEEESt6vectorINS1_5Rect_IiEESaISF_EEE3$_0EERT_v"(ptr noundef nonnull align 8 dereferenceable(16) %14) #3
  store ptr %13, ptr %15, align 8, !tbaa !63
  br label %22

16:                                               ; preds = %3
  %17 = load ptr, ptr %4, align 8, !tbaa !648
  %18 = load ptr, ptr %5, align 8, !tbaa !648
  %19 = call noundef ptr @"_ZNSt14_Function_base13_Base_managerIZN2cv3mcc20CCheckerDetectorImpl15_no_net_processERKNS1_11_InputArrayENS2_9TYPECHARTEiRKNS1_3PtrINS2_18DetectorParametersEEESt6vectorINS1_5Rect_IiEESaISF_EEE3$_0E14_M_get_pointerERKSt9_Any_data"(ptr noundef nonnull align 8 dereferenceable(16) %18) #3
  call void @"_ZNSt14_Function_base13_Base_managerIZN2cv3mcc20CCheckerDetectorImpl15_no_net_processERKNS1_11_InputArrayENS2_9TYPECHARTEiRKNS1_3PtrINS2_18DetectorParametersEEESt6vectorINS1_5Rect_IiEESaISF_EEE3$_0E15_M_init_functorIRKSI_EEvRSt9_Any_dataOT_"(ptr noundef nonnull align 8 dereferenceable(16) %17, ptr noundef nonnull align 8 dereferenceable(112) %19)
  br label %22

20:                                               ; preds = %3
  %21 = load ptr, ptr %4, align 8, !tbaa !648
  call void @"_ZNSt14_Function_base13_Base_managerIZN2cv3mcc20CCheckerDetectorImpl15_no_net_processERKNS1_11_InputArrayENS2_9TYPECHARTEiRKNS1_3PtrINS2_18DetectorParametersEEESt6vectorINS1_5Rect_IiEESaISF_EEE3$_0E10_M_destroyERSt9_Any_dataSt17integral_constantIbLb0EE"(ptr noundef nonnull align 8 dereferenceable(16) %21)
  br label %22

22:                                               ; preds = %3, %20, %16, %11, %8
  ret i1 false
}

; Function Attrs: mustprogress nounwind uwtable
define internal noundef nonnull align 8 dereferenceable(8) ptr @"_ZNSt9_Any_data9_M_accessIPZN2cv3mcc20CCheckerDetectorImpl15_no_net_processERKNS1_11_InputArrayENS2_9TYPECHARTEiRKNS1_3PtrINS2_18DetectorParametersEEESt6vectorINS1_5Rect_IiEESaISF_EEE3$_0EERT_v"(ptr noundef nonnull align 8 dereferenceable(16) %0) #8 align 2 {
  %2 = alloca ptr, align 8
  store ptr %0, ptr %2, align 8, !tbaa !648
  %3 = load ptr, ptr %2, align 8
  %4 = call noundef ptr @_ZNSt9_Any_data9_M_accessEv(ptr noundef nonnull align 8 dereferenceable(16) %3) #3
  ret ptr %4
}

; Function Attrs: mustprogress nounwind uwtable
define internal noundef ptr @"_ZNSt14_Function_base13_Base_managerIZN2cv3mcc20CCheckerDetectorImpl15_no_net_processERKNS1_11_InputArrayENS2_9TYPECHARTEiRKNS1_3PtrINS2_18DetectorParametersEEESt6vectorINS1_5Rect_IiEESaISF_EEE3$_0E14_M_get_pointerERKSt9_Any_data"(ptr noundef nonnull align 8 dereferenceable(16) %0) #8 align 2 {
  %2 = alloca ptr, align 8
  store ptr %0, ptr %2, align 8, !tbaa !648
  %3 = load ptr, ptr %2, align 8, !tbaa !648
  %4 = call noundef nonnull align 8 dereferenceable(8) ptr @"_ZNKSt9_Any_data9_M_accessIPZN2cv3mcc20CCheckerDetectorImpl15_no_net_processERKNS1_11_InputArrayENS2_9TYPECHARTEiRKNS1_3PtrINS2_18DetectorParametersEEESt6vectorINS1_5Rect_IiEESaISF_EEE3$_0EERKT_v"(ptr noundef nonnull align 8 dereferenceable(16) %3) #3
  %5 = load ptr, ptr %4, align 8, !tbaa !63
  ret ptr %5
}

; Function Attrs: mustprogress nounwind uwtable
define linkonce_odr hidden noundef nonnull align 8 dereferenceable(8) ptr @_ZNSt9_Any_data9_M_accessIPKSt9type_infoEERT_v(ptr noundef nonnull align 8 dereferenceable(16) %0) #8 comdat align 2 {
  %2 = alloca ptr, align 8
  store ptr %0, ptr %2, align 8, !tbaa !648
  %3 = load ptr, ptr %2, align 8
  %4 = call noundef ptr @_ZNSt9_Any_data9_M_accessEv(ptr noundef nonnull align 8 dereferenceable(16) %3) #3
  ret ptr %4
}

; Function Attrs: mustprogress uwtable
define internal noundef zeroext i1 @"_ZNSt17_Function_handlerIFvRKN2cv5RangeEEZNS0_3mcc20CCheckerDetectorImpl15_no_net_processERKNS0_11_InputArrayENS5_9TYPECHARTEiRKNS0_3PtrINS5_18DetectorParametersEEESt6vectorINS0_5Rect_IiEESaISI_EEE3$_0E10_M_managerERSt9_Any_dataRKSN_St18_Manager_operation"(ptr noundef nonnull align 8 dereferenceable(16) %0, ptr noundef nonnull align 8 dereferenceable(16) %1, i32 noundef %2) #4 align 2 {
  %4 = alloca ptr, align 8
  %5 = alloca ptr, align 8
  %6 = alloca i32, align 4
  store ptr %0, ptr %4, align 8, !tbaa !648
  store ptr %1, ptr %5, align 8, !tbaa !648
  store i32 %2, ptr %6, align 4, !tbaa !650
  %7 = load i32, ptr %6, align 4, !tbaa !650
  switch i32 %7, label %16 [
    i32 0, label %8
    i32 1, label %11
  ]

8:                                                ; preds = %3
  %9 = load ptr, ptr %4, align 8, !tbaa !648
  %10 = call noundef nonnull align 8 dereferenceable(8) ptr @_ZNSt9_Any_data9_M_accessIPKSt9type_infoEERT_v(ptr noundef nonnull align 8 dereferenceable(16) %9) #3
  store ptr @"_ZTIZN2cv3mcc20CCheckerDetectorImpl15_no_net_processERKNS_11_InputArrayENS0_9TYPECHARTEiRKNS_3PtrINS0_18DetectorParametersEEESt6vectorINS_5Rect_IiEESaISD_EEE3$_0", ptr %10, align 8, !tbaa !622
  br label %21

11:                                               ; preds = %3
  %12 = load ptr, ptr %5, align 8, !tbaa !648
  %13 = call noundef ptr @"_ZNSt14_Function_base13_Base_managerIZN2cv3mcc20CCheckerDetectorImpl15_no_net_processERKNS1_11_InputArrayENS2_9TYPECHARTEiRKNS1_3PtrINS2_18DetectorParametersEEESt6vectorINS1_5Rect_IiEESaISF_EEE3$_0E14_M_get_pointerERKSt9_Any_data"(ptr noundef nonnull align 8 dereferenceable(16) %12) #3
  %14 = load ptr, ptr %4, align 8, !tbaa !648
  %15 = call noundef nonnull align 8 dereferenceable(8) ptr @"_ZNSt9_Any_data9_M_accessIPZN2cv3mcc20CCheckerDetectorImpl15_no_net_processERKNS1_11_InputArrayENS2_9TYPECHARTEiRKNS1_3PtrINS2_18DetectorParametersEEESt6vectorINS1_5Rect_IiEESaISF_EEE3$_0EERT_v"(ptr noundef nonnull align 8 dereferenceable(16) %14) #3
  store ptr %13, ptr %15, align 8, !tbaa !63
  br label %21

16:                                               ; preds = %3
  %17 = load ptr, ptr %4, align 8, !tbaa !648
  %18 = load ptr, ptr %5, align 8, !tbaa !648
  %19 = load i32, ptr %6, align 4, !tbaa !650
  %20 = call noundef zeroext i1 @"_ZNSt14_Function_base13_Base_managerIZN2cv3mcc20CCheckerDetectorImpl15_no_net_processERKNS1_11_InputArrayENS2_9TYPECHARTEiRKNS1_3PtrINS2_18DetectorParametersEEESt6vectorINS1_5Rect_IiEESaISF_EEE3$_0E10_M_managerERSt9_Any_dataRKSK_St18_Manager_operation"(ptr noundef nonnull align 8 dereferenceable(16) %17, ptr noundef nonnull align 8 dereferenceable(16) %18, i32 noundef %19)
  br label %21

21:                                               ; preds = %16, %11, %8
  ret i1 false
}